target datalayout = "e-m:e-p270:32:32-p271:32:32-p272:64:64-i64:64-i128:128-f80:128-n8:16:32:64-S128"
target triple = "x86_64-unknown-linux-gnu"

%"class.llvh::Optional" = type { %"struct.llvh::optional_detail::OptionalStorage" }
%"struct.llvh::optional_detail::OptionalStorage" = type { %"struct.llvh::AlignedCharArrayUnion", i8, [7 x i8] }
%"struct.llvh::AlignedCharArrayUnion" = type { %"struct.llvh::AlignedCharArray" }
%"struct.llvh::AlignedCharArray" = type { [8 x i8] }
%"struct.llvh::SaveAndRestore" = type <{ ptr, i32, [4 x i8] }>
%"class.llvh::SMLoc" = type { ptr }
%"class.llvh::SMRange" = type { %"class.llvh::SMLoc", %"class.llvh::SMLoc" }
%"class.hermes::parser::detail::JSParserImpl" = type { ptr, ptr, %"class.hermes::parser::JSLexer", ptr, i32, ptr, i32, i8, i8, i8, %"class.llvh::SmallVector.9", i32, i8, i8, ptr, ptr, ptr, ptr, ptr, ptr, ptr, ptr, ptr, ptr, ptr, ptr, ptr, ptr, ptr, ptr, ptr, ptr, ptr, ptr, ptr, ptr, ptr, ptr, ptr, ptr, ptr, ptr, ptr, ptr, ptr, ptr, ptr, ptr, ptr, ptr, ptr, ptr, ptr, ptr, ptr, ptr, ptr, ptr, ptr, ptr, ptr, ptr, ptr, ptr, ptr, ptr, ptr, ptr, ptr, ptr, ptr, ptr, ptr, ptr, ptr, ptr, ptr, ptr, ptr, ptr, ptr, ptr, ptr, ptr, ptr, [122 x ptr] }
%"class.hermes::parser::JSLexer" = type { ptr, ptr, i32, %"class.std::unique_ptr", ptr, ptr, i8, i8, i8, i8, [4 x i8], %"class.hermes::parser::Token", %"class.llvh::SMLoc", ptr, ptr, ptr, i8, %"class.llvh::SmallString", %"class.llvh::SmallString", [46 x ptr], %"class.std::vector", %"class.std::vector.4" }
%"class.std::unique_ptr" = type { %"struct.std::__uniq_ptr_data" }
%"struct.std::__uniq_ptr_data" = type { %"class.std::__uniq_ptr_impl" }
%"class.std::__uniq_ptr_impl" = type { %"class.std::tuple" }
%"class.std::tuple" = type { %"struct.std::_Tuple_impl" }
%"struct.std::_Tuple_impl" = type { %"struct.std::_Head_base.1" }
%"struct.std::_Head_base.1" = type { ptr }
%"class.hermes::parser::Token" = type <{ i32, [4 x i8], %"class.llvh::SMRange", double, ptr, ptr, ptr, ptr, i8, [7 x i8] }>
%"class.llvh::SmallString" = type { %"class.llvh::SmallVector" }
%"class.llvh::SmallVector" = type { %"class.llvh::SmallVectorImpl", %"struct.llvh::SmallVectorStorage" }
%"class.llvh::SmallVectorImpl" = type { %"class.llvh::SmallVectorTemplateBase" }
%"class.llvh::SmallVectorTemplateBase" = type { %"class.llvh::SmallVectorTemplateCommon" }
%"class.llvh::SmallVectorTemplateCommon" = type { %"class.llvh::SmallVectorBase" }
%"class.llvh::SmallVectorBase" = type { ptr, i32, i32 }
%"struct.llvh::SmallVectorStorage" = type { [256 x %"struct.llvh::AlignedCharArrayUnion.2"] }
%"struct.llvh::AlignedCharArrayUnion.2" = type { %"struct.llvh::AlignedCharArray.3" }
%"struct.llvh::AlignedCharArray.3" = type { [1 x i8] }
%"class.std::vector" = type { %"struct.std::_Vector_base" }
%"struct.std::_Vector_base" = type { %"struct.std::_Vector_base<hermes::parser::StoredComment, std::allocator<hermes::parser::StoredComment>>::_Vector_impl" }
%"struct.std::_Vector_base<hermes::parser::StoredComment, std::allocator<hermes::parser::StoredComment>>::_Vector_impl" = type { %"struct.std::_Vector_base<hermes::parser::StoredComment, std::allocator<hermes::parser::StoredComment>>::_Vector_impl_data" }
%"struct.std::_Vector_base<hermes::parser::StoredComment, std::allocator<hermes::parser::StoredComment>>::_Vector_impl_data" = type { ptr, ptr, ptr }
%"class.std::vector.4" = type { %"struct.std::_Vector_base.5" }
%"struct.std::_Vector_base.5" = type { %"struct.std::_Vector_base<hermes::parser::StoredToken, std::allocator<hermes::parser::StoredToken>>::_Vector_impl" }
%"struct.std::_Vector_base<hermes::parser::StoredToken, std::allocator<hermes::parser::StoredToken>>::_Vector_impl" = type { %"struct.std::_Vector_base<hermes::parser::StoredToken, std::allocator<hermes::parser::StoredToken>>::_Vector_impl_data" }
%"struct.std::_Vector_base<hermes::parser::StoredToken, std::allocator<hermes::parser::StoredToken>>::_Vector_impl_data" = type { ptr, ptr, ptr }
%"class.llvh::SmallVector.9" = type { %"class.llvh::SmallVectorImpl.10", %"struct.llvh::SmallVectorStorage.13" }
%"class.llvh::SmallVectorImpl.10" = type { %"class.llvh::SmallVectorTemplateBase.11" }
%"class.llvh::SmallVectorTemplateBase.11" = type { %"class.llvh::SmallVectorTemplateCommon.12" }
%"class.llvh::SmallVectorTemplateCommon.12" = type { %"class.llvh::SmallVectorBase" }
%"struct.llvh::SmallVectorStorage.13" = type { [1 x %"struct.llvh::AlignedCharArrayUnion.14"] }
%"struct.llvh::AlignedCharArrayUnion.14" = type { %"struct.llvh::AlignedCharArray" }

; Function Attrs: mustprogress nounwind uwtable
define linkonce_odr hidden noundef i32 @_ZNK6hermes6parser5Token7getKindEv(ptr noundef nonnull align 8 dereferenceable(65) %this) #0 comdat align 2 {
entry:
  %this.addr = alloca ptr, align 8
  store ptr %this, ptr %this.addr, align 8
  %this1 = load ptr, ptr %this.addr, align 8
  %kind_ = getelementptr inbounds %"class.hermes::parser::Token", ptr %this1, i32 0, i32 0
  %0 = load i32, ptr %kind_, align 8
  ret i32 %0
}

; Function Attrs: mustprogress nounwind uwtable
define linkonce_odr hidden { ptr, ptr } @_ZNK6hermes6parser5Token14getSourceRangeEv(ptr noundef nonnull align 8 dereferenceable(65) %this) #0 comdat align 2 {
entry:
  %retval = alloca %"class.llvh::SMRange", align 8
  %this.addr = alloca ptr, align 8
  store ptr %this, ptr %this.addr, align 8
  %this1 = load ptr, ptr %this.addr, align 8
  %range_ = getelementptr inbounds %"class.hermes::parser::Token", ptr %this1, i32 0, i32 2
  call void @llvm.memcpy.p0.p0.i64(ptr align 8 %retval, ptr align 8 %range_, i64 16, i1 false)
  %0 = load { ptr, ptr }, ptr %retval, align 8
  ret { ptr, ptr } %0
}

; Function Attrs: mustprogress nounwind uwtable
define linkonce_odr hidden void @_ZN4llvh14SaveAndRestoreIjED2Ev(ptr noundef nonnull align 8 dereferenceable(12) %this) unnamed_addr #0 comdat align 2 {
entry:
  %this.addr = alloca ptr, align 8
  store ptr %this, ptr %this.addr, align 8
  %this1 = load ptr, ptr %this.addr, align 8
  %OldValue = getelementptr inbounds %"struct.llvh::SaveAndRestore", ptr %this1, i32 0, i32 1
  %0 = load i32, ptr %OldValue, align 8
  %X = getelementptr inbounds %"struct.llvh::SaveAndRestore", ptr %this1, i32 0, i32 0
  %1 = load ptr, ptr %X, align 8
  store i32 %0, ptr %1, align 4
  ret void
}

; Function Attrs: mustprogress nounwind uwtable
define linkonce_odr hidden noundef zeroext i1 @_ZNK6hermes6parser6detail12JSParserImpl5checkENS0_9TokenKindE(ptr noundef nonnull align 8 dereferenceable(2752) %this, i32 noundef %kind) #0 comdat align 2 {
entry:
  %this.addr = alloca ptr, align 8
  %kind.addr = alloca i32, align 4
  store ptr %this, ptr %this.addr, align 8
  store i32 %kind, ptr %kind.addr, align 4
  %this1 = load ptr, ptr %this.addr, align 8
  %tok_ = getelementptr inbounds %"class.hermes::parser::detail::JSParserImpl", ptr %this1, i32 0, i32 3
  %0 = load ptr, ptr %tok_, align 8
  %call = call noundef i32 @_ZNK6hermes6parser5Token7getKindEv(ptr noundef nonnull align 8 dereferenceable(65) %0)
  %1 = load i32, ptr %kind.addr, align 4
  %cmp = icmp eq i32 %call, %1
  ret i1 %cmp
}

; Function Attrs: mustprogress nounwind uwtable
define linkonce_odr hidden { ptr, ptr } @_ZN6hermes6parser6detail12JSParserImpl7advanceENS0_7JSLexer14GrammarContextE(ptr noundef nonnull align 8 dereferenceable(2752) %this, i32 noundef %grammarContext) #0 comdat align 2 {
entry:
  %retval = alloca %"class.llvh::SMRange", align 8
  %this.addr = alloca ptr, align 8
  %grammarContext.addr = alloca i32, align 4
  store ptr %this, ptr %this.addr, align 8
  store i32 %grammarContext, ptr %grammarContext.addr, align 4
  %this1 = load ptr, ptr %this.addr, align 8
  %tok_ = getelementptr inbounds %"class.hermes::parser::detail::JSParserImpl", ptr %this1, i32 0, i32 3
  %0 = load ptr, ptr %tok_, align 8
  %call = call { ptr, ptr } @_ZNK6hermes6parser5Token14getSourceRangeEv(ptr noundef nonnull align 8 dereferenceable(65) %0)
  %1 = getelementptr inbounds { ptr, ptr }, ptr %retval, i32 0, i32 0
  %2 = extractvalue { ptr, ptr } %call, 0
  store ptr %2, ptr %1, align 8
  %3 = getelementptr inbounds { ptr, ptr }, ptr %retval, i32 0, i32 1
  %4 = extractvalue { ptr, ptr } %call, 1
  store ptr %4, ptr %3, align 8
  %lexer_ = getelementptr inbounds %"class.hermes::parser::detail::JSParserImpl", ptr %this1, i32 0, i32 2
  %5 = load i32, ptr %grammarContext.addr, align 4
  %call2 = call noundef ptr @_ZN6hermes6parser7JSLexer7advanceENS1_14GrammarContextE(ptr noundef nonnull align 8 dereferenceable(1128) %lexer_, i32 noundef %5)
  %tok_3 = getelementptr inbounds %"class.hermes::parser::detail::JSParserImpl", ptr %this1, i32 0, i32 3
  store ptr %call2, ptr %tok_3, align 8
  %6 = load { ptr, ptr }, ptr %retval, align 8
  ret { ptr, ptr } %6
}

; Function Attrs: mustprogress nounwind uwtable
define linkonce_odr hidden void @_ZN4llvh14SaveAndRestoreIjEC2ERjRKj(ptr noundef nonnull align 8 dereferenceable(12) %this, ptr noundef nonnull align 4 dereferenceable(4) %X, ptr noundef nonnull align 4 dereferenceable(4) %NewValue) unnamed_addr #0 comdat align 2 {
entry:
  %this.addr = alloca ptr, align 8
  %X.addr = alloca ptr, align 8
  %NewValue.addr = alloca ptr, align 8
  store ptr %this, ptr %this.addr, align 8
  store ptr %X, ptr %X.addr, align 8
  store ptr %NewValue, ptr %NewValue.addr, align 8
  %this1 = load ptr, ptr %this.addr, align 8
  %X2 = getelementptr inbounds %"struct.llvh::SaveAndRestore", ptr %this1, i32 0, i32 0
  %0 = load ptr, ptr %X.addr, align 8
  store ptr %0, ptr %X2, align 8
  %OldValue = getelementptr inbounds %"struct.llvh::SaveAndRestore", ptr %this1, i32 0, i32 1
  %1 = load ptr, ptr %X.addr, align 8
  %2 = load i32, ptr %1, align 4
  store i32 %2, ptr %OldValue, align 8
  %3 = load ptr, ptr %NewValue.addr, align 8
  %4 = load i32, ptr %3, align 4
  %5 = load ptr, ptr %X.addr, align 8
  store i32 %4, ptr %5, align 4
  ret void
}

; Function Attrs: mustprogress nounwind uwtable
define hidden { i64, i8 } @_ZN6hermes6parser6detail12JSParserImpl8parseJSXEv(ptr noundef nonnull align 8 dereferenceable(2752) %this) #0 align 2 {
entry:
  %retval = alloca %"class.llvh::Optional", align 8
  %this.addr = alloca ptr, align 8
  %saveDepth = alloca %"struct.llvh::SaveAndRestore", align 8
  %ref.tmp = alloca i32, align 4
  %start = alloca %"class.llvh::SMLoc", align 8
  %ref.tmp2 = alloca %"class.llvh::SMRange", align 8
  %agg.tmp = alloca %"class.llvh::SMLoc", align 8
  %cleanup.dest.slot = alloca i32, align 4
  %agg.tmp6 = alloca %"class.llvh::SMLoc", align 8
  store ptr %this, ptr %this.addr, align 8
  %this1 = load ptr, ptr %this.addr, align 8
  %jsxDepth_ = getelementptr inbounds %"class.hermes::parser::detail::JSParserImpl", ptr %this1, i32 0, i32 11
  store i32 0, ptr %ref.tmp, align 4
  call void @_ZN4llvh14SaveAndRestoreIjEC2ERjRKj(ptr noundef nonnull align 8 dereferenceable(12) %saveDepth, ptr noundef nonnull align 4 dereferenceable(4) %jsxDepth_, ptr noundef nonnull align 4 dereferenceable(4) %ref.tmp)
  %call = call { ptr, ptr } @_ZN6hermes6parser6detail12JSParserImpl7advanceENS0_7JSLexer14GrammarContextE(ptr noundef nonnull align 8 dereferenceable(2752) %this1, i32 noundef 2)
  %0 = getelementptr inbounds { ptr, ptr }, ptr %ref.tmp2, i32 0, i32 0
  %1 = extractvalue { ptr, ptr } %call, 0
  store ptr %1, ptr %0, align 8
  %2 = getelementptr inbounds { ptr, ptr }, ptr %ref.tmp2, i32 0, i32 1
  %3 = extractvalue { ptr, ptr } %call, 1
  store ptr %3, ptr %2, align 8
  %Start = getelementptr inbounds %"class.llvh::SMRange", ptr %ref.tmp2, i32 0, i32 0
  call void @llvm.memcpy.p0.p0.i64(ptr align 8 %start, ptr align 8 %Start, i64 8, i1 false)
  %call3 = call noundef zeroext i1 @_ZNK6hermes6parser6detail12JSParserImpl5checkENS0_9TokenKindE(ptr noundef nonnull align 8 dereferenceable(2752) %this1, i32 noundef 75)
  br i1 %call3, label %if.then, label %if.end

if.then:                                          ; preds = %entry
  call void @llvm.memcpy.p0.p0.i64(ptr align 8 %agg.tmp, ptr align 8 %start, i64 8, i1 false)
  %coerce.dive = getelementptr inbounds %"class.llvh::SMLoc", ptr %agg.tmp, i32 0, i32 0
  %4 = load ptr, ptr %coerce.dive, align 8
  %call4 = call { i64, i8 } @_ZN6hermes6parser6detail12JSParserImpl16parseJSXFragmentEN4llvh5SMLocE(ptr noundef nonnull align 8 dereferenceable(2752) %this1, ptr %4)
  %coerce.dive5 = getelementptr inbounds %"class.llvh::Optional", ptr %retval, i32 0, i32 0
  %5 = getelementptr inbounds { i64, i8 }, ptr %coerce.dive5, i32 0, i32 0
  %6 = extractvalue { i64, i8 } %call4, 0
  store i64 %6, ptr %5, align 8
  %7 = getelementptr inbounds { i64, i8 }, ptr %coerce.dive5, i32 0, i32 1
  %8 = extractvalue { i64, i8 } %call4, 1
  store i8 %8, ptr %7, align 8
  store i32 1, ptr %cleanup.dest.slot, align 4
  br label %cleanup

if.end:                                           ; preds = %entry
  call void @llvm.memcpy.p0.p0.i64(ptr align 8 %agg.tmp6, ptr align 8 %start, i64 8, i1 false)
  %coerce.dive7 = getelementptr inbounds %"class.llvh::SMLoc", ptr %agg.tmp6, i32 0, i32 0
  %9 = load ptr, ptr %coerce.dive7, align 8
  %call8 = call { i64, i8 } @_ZN6hermes6parser6detail12JSParserImpl15parseJSXElementEN4llvh5SMLocE(ptr noundef nonnull align 8 dereferenceable(2752) %this1, ptr %9)
  %coerce.dive9 = getelementptr inbounds %"class.llvh::Optional", ptr %retval, i32 0, i32 0
  %10 = getelementptr inbounds { i64, i8 }, ptr %coerce.dive9, i32 0, i32 0
  %11 = extractvalue { i64, i8 } %call8, 0
  store i64 %11, ptr %10, align 8
  %12 = getelementptr inbounds { i64, i8 }, ptr %coerce.dive9, i32 0, i32 1
  %13 = extractvalue { i64, i8 } %call8, 1
  store i8 %13, ptr %12, align 8
  store i32 1, ptr %cleanup.dest.slot, align 4
  br label %cleanup

cleanup:                                          ; preds = %if.end, %if.then
  call void @_ZN4llvh14SaveAndRestoreIjED2Ev(ptr noundef nonnull align 8 dereferenceable(12) %saveDepth) #8
  %coerce.dive10 = getelementptr inbounds %"class.llvh::Optional", ptr %retval, i32 0, i32 0
  %14 = load { i64, i8 }, ptr %coerce.dive10, align 8
  ret { i64, i8 } %14
}