; Function Attrs: mustprogress nounwind uwtable
define hidden { i64, i8 } @_ZN6hermes6parser6detail12JSParserImpl8parseJSXEv(ptr noundef nonnull align 8 dereferenceable(2752) %this) local_unnamed_addr #0 align 2 {
entry:
  %jsxDepth_ = getelementptr inbounds nuw i8, ptr %this, i64 1200
  %0 = load i32, ptr %jsxDepth_, align 8
  store i32 0, ptr %jsxDepth_, align 8
  %tok_.i = getelementptr inbounds nuw i8, ptr %this, i64 1144
  %1 = load ptr, ptr %tok_.i, align 8
  %range_.i.i = getelementptr inbounds nuw i8, ptr %1, i64 8
  %retval.sroa.0.0.copyload.i.i = load ptr, ptr %range_.i.i, align 8
  %lexer_.i = getelementptr inbounds nuw i8, ptr %this, i64 16
  %call2.i = tail call noundef ptr @_ZN6hermes6parser7JSLexer7advanceENS1_14GrammarContextE(ptr noundef nonnull align 8 dereferenceable(1128) %lexer_.i, i32 noundef 2) #9
  store ptr %call2.i, ptr %tok_.i, align 8
  %2 = load i32, ptr %call2.i, align 8
  %cmp.i = icmp eq i32 %2, 75
  br i1 %cmp.i, label %if.then, label %if.end

if.then:                                          ; preds = %entry
  %call4 = tail call { i64, i8 } @_ZN6hermes6parser6detail12JSParserImpl16parseJSXFragmentEN4llvh5SMLocE(ptr noundef nonnull align 8 dereferenceable(2752) %this, ptr %retval.sroa.0.0.copyload.i.i)
  br label %cleanup

if.end:                                           ; preds = %entry
  %call8 = tail call { i64, i8 } @_ZN6hermes6parser6detail12JSParserImpl15parseJSXElementEN4llvh5SMLocE(ptr noundef nonnull align 8 dereferenceable(2752) %this, ptr %retval.sroa.0.0.copyload.i.i)
  br label %cleanup

cleanup:                                          ; preds = %if.end, %if.then
  %call4.pn = phi { i64, i8 } [ %call4, %if.then ], [ %call8, %if.end ]
  store i32 %0, ptr %jsxDepth_, align 8
  ret { i64, i8 } %call4.pn
}